target datalayout = "e-m:e-p270:32:32-p271:32:32-p272:64:64-i64:64-i128:128-f80:128-n8:16:32:64-S128"
target triple = "x86_64-pc-linux-gnu"

%struct._php_ps_globals = type { ptr, ptr, ptr, ptr, ptr, i64, ptr, ptr, ptr, i8, i8, ptr, ptr, ptr, i32, ptr, i32, i32, %struct._php_random_status_state_pcgoneseq128xslrr64, %struct._php_random_algo_with_state, i64, i64, i64, i64, %struct.anon, ptr, i8, i8, i8, i8, i8, i8, i8, i8, ptr, %struct._zval_struct, i64, i64, ptr, ptr, ptr, i64, double, i8, i8, i8, i8, i8, i8, ptr }
%struct._php_random_status_state_pcgoneseq128xslrr64 = type { i128 }
%struct._php_random_algo_with_state = type { ptr, ptr }
%struct.anon = type { %struct._zval_struct, %struct._zval_struct, %struct._zval_struct, %struct._zval_struct, %struct._zval_struct, %struct._zval_struct, %struct._zval_struct, %struct._zval_struct, %struct._zval_struct }
%struct._zval_struct = type { %union._zend_value, %union.anon, %union.anon.3 }
%union._zend_value = type { i64 }
%union.anon = type { i32 }
%union.anon.3 = type { i32 }
%struct._zend_executor_globals = type { %struct._zval_struct, %struct._zval_struct, [32 x ptr], ptr, ptr, %struct._zend_array, %struct._zend_array, ptr, i32, i32, ptr, ptr, ptr, ptr, ptr, ptr, i64, ptr, ptr, i32, i32, i64, i32, i32, i32, i8, i8, %struct.zend_atomic_bool_s, %struct.zend_atomic_bool_s, ptr, i64, ptr, ptr, %struct._zend_array, %struct._zend_array, i32, i8, %struct._zval_struct, %struct._zval_struct, %struct._zend_stack, %struct._zend_stack, %struct._zend_stack, ptr, i32, i32, i64, ptr, ptr, ptr, %struct._zend_objects_store, ptr, ptr, ptr, [3 x %struct._zend_op], ptr, i8, i8, i64, i32, i32, ptr, [16 x %struct._HashTableIterator], ptr, %union._zend_function, %struct._zend_op, %struct._zend_array, i64, %struct.zend_get_gc_buffer, ptr, ptr, ptr, i64, i8, i32, ptr, ptr, i64, %struct._zend_call_stack, i64, i64, [6 x ptr] }
%struct.zend_atomic_bool_s = type { i8 }
%struct._zend_stack = type { i32, i32, i32, ptr }
%struct._zend_objects_store = type { ptr, i32, i32, i32 }
%struct._HashTableIterator = type { ptr, i32, i32 }
%union._zend_function = type { %struct._zend_op_array }
%struct._zend_op_array = type { i8, [3 x i8], i32, ptr, ptr, ptr, i32, i32, ptr, ptr, ptr, ptr, i32, i32, i32, i32, ptr, ptr, ptr, ptr, ptr, i32, i32, ptr, ptr, ptr, i32, i32, i32, i32, ptr, ptr, [6 x ptr] }
%struct._zend_op = type { ptr, %union._znode_op, %union._znode_op, %union._znode_op, i32, i32, i8, i8, i8, i8 }
%union._znode_op = type { i32 }
%struct._zend_array = type { %struct._zend_refcounted_h, %union.anon.5, i32, %union.anon.7, i32, i32, i32, i32, i64, ptr }
%struct._zend_refcounted_h = type { i32, %union.anon.4 }
%union.anon.4 = type { i32 }
%union.anon.5 = type { i32 }
%union.anon.7 = type { ptr }
%struct.zend_get_gc_buffer = type { ptr, ptr, ptr }
%struct._zend_call_stack = type { ptr, i64 }
%struct.__jmp_buf_tag = type { [8 x i64], i32, %struct.__sigset_t }
%struct.__sigset_t = type { [16 x i64] }

@ps_globals = global %struct._php_ps_globals zeroinitializer, align 16
@executor_globals = external global %struct._zend_executor_globals, align 8

; Function Attrs: nounwind uwtable
define internal i32 @zm_deactivate_session(i32 noundef %0, i32 noundef %1) #0 {
  %3 = alloca ptr, align 8
  %4 = alloca ptr, align 8
  %5 = alloca ptr, align 8
  %6 = alloca ptr, align 8
  %7 = alloca ptr, align 8
  %8 = alloca ptr, align 8
  %9 = alloca ptr, align 8
  %10 = alloca ptr, align 8
  %11 = alloca ptr, align 8
  %12 = alloca i32, align 4
  %13 = alloca i32, align 4
  %14 = alloca ptr, align 8
  %15 = alloca [1 x %struct.__jmp_buf_tag], align 16
  store i32 %0, ptr %12, align 4
  store i32 %1, ptr %13, align 4
  %16 = load i32, ptr getelementptr inbounds (%struct._php_ps_globals, ptr @ps_globals, i32 0, i32 14), align 8
  %17 = icmp eq i32 %16, 2
  br i1 %17, label %18, label %27

18:                                               ; preds = %2
  %19 = load ptr, ptr getelementptr inbounds (%struct._zend_executor_globals, ptr @executor_globals, i32 0, i32 7), align 8
  store ptr %19, ptr %14, align 8
  store ptr %15, ptr getelementptr inbounds (%struct._zend_executor_globals, ptr @executor_globals, i32 0, i32 7), align 8
  %20 = getelementptr inbounds [1 x %struct.__jmp_buf_tag], ptr %15, i64 0, i64 0
  %21 = call i32 @__sigsetjmp(ptr noundef %20, i32 noundef 0) #13
  %22 = icmp eq i32 %21, 0
  br i1 %22, label %23, label %25

23:                                               ; preds = %18
  %24 = call i32 @php_session_flush(i32 noundef 1)
  br label %25

25:                                               ; preds = %23, %18
  %26 = load ptr, ptr %14, align 8
  store ptr %26, ptr getelementptr inbounds (%struct._zend_executor_globals, ptr @executor_globals, i32 0, i32 7), align 8
  br label %27

27:                                               ; preds = %25, %2
  call void @php_rshutdown_session_globals()
  store ptr getelementptr inbounds (%struct._php_ps_globals, ptr @ps_globals, i32 0, i32 24), ptr %3, align 8
  %28 = load ptr, ptr %3, align 8
  %29 = getelementptr inbounds %struct._zval_struct, ptr %28, i32 0, i32 1
  %30 = load i8, ptr %29, align 8
  %31 = zext i8 %30 to i32
  %32 = icmp eq i32 %31, 0
  br i1 %32, label %36, label %33

33:                                               ; preds = %27
  call void @zval_ptr_dtor(ptr noundef getelementptr inbounds (%struct._php_ps_globals, ptr @ps_globals, i32 0, i32 24))
  br label %34

34:                                               ; preds = %33
  store i32 0, ptr getelementptr inbounds (%struct._zval_struct, ptr getelementptr inbounds (%struct._php_ps_globals, ptr @ps_globals, i32 0, i32 24), i32 0, i32 1), align 8
  br label %35

35:                                               ; preds = %34
  br label %36

36:                                               ; preds = %35, %27
  store ptr getelementptr inbounds (%struct._php_ps_globals, ptr @ps_globals, i32 0, i32 24, i32 1), ptr %4, align 8
  %37 = load ptr, ptr %4, align 8
  %38 = getelementptr inbounds %struct._zval_struct, ptr %37, i32 0, i32 1
  %39 = load i8, ptr %38, align 8
  %40 = zext i8 %39 to i32
  %41 = icmp eq i32 %40, 0
  br i1 %41, label %45, label %42

42:                                               ; preds = %36
  call void @zval_ptr_dtor(ptr noundef getelementptr inbounds (%struct._php_ps_globals, ptr @ps_globals, i32 0, i32 24, i32 1))
  br label %43

43:                                               ; preds = %42
  store i32 0, ptr getelementptr inbounds (%struct._php_ps_globals, ptr @ps_globals, i32 0, i32 24, i32 1, i32 1), align 8
  br label %44

44:                                               ; preds = %43
  br label %45

45:                                               ; preds = %44, %36
  store ptr getelementptr inbounds (%struct._php_ps_globals, ptr @ps_globals, i32 0, i32 24, i32 2), ptr %5, align 8
  %46 = load ptr, ptr %5, align 8
  %47 = getelementptr inbounds %struct._zval_struct, ptr %46, i32 0, i32 1
  %48 = load i8, ptr %47, align 8
  %49 = zext i8 %48 to i32
  %50 = icmp eq i32 %49, 0
  br i1 %50, label %54, label %51

51:                                               ; preds = %45
  call void @zval_ptr_dtor(ptr noundef getelementptr inbounds (%struct._php_ps_globals, ptr @ps_globals, i32 0, i32 24, i32 2))
  br label %52

52:                                               ; preds = %51
  store i32 0, ptr getelementptr inbounds (%struct._php_ps_globals, ptr @ps_globals, i32 0, i32 24, i32 2, i32 1), align 8
  br label %53

53:                                               ; preds = %52
  br label %54

54:                                               ; preds = %53, %45
  store ptr getelementptr inbounds (%struct._php_ps_globals, ptr @ps_globals, i32 0, i32 24, i32 3), ptr %6, align 8
  %55 = load ptr, ptr %6, align 8
  %56 = getelementptr inbounds %struct._zval_struct, ptr %55, i32 0, i32 1
  %57 = load i8, ptr %56, align 8
  %58 = zext i8 %57 to i32
  %59 = icmp eq i32 %58, 0
  br i1 %59, label %63, label %60

60:                                               ; preds = %54
  call void @zval_ptr_dtor(ptr noundef getelementptr inbounds (%struct._php_ps_globals, ptr @ps_globals, i32 0, i32 24, i32 3))
  br label %61

61:                                               ; preds = %60
  store i32 0, ptr getelementptr inbounds (%struct._php_ps_globals, ptr @ps_globals, i32 0, i32 24, i32 3, i32 1), align 8
  br label %62

62:                                               ; preds = %61
  br label %63

63:                                               ; preds = %62, %54
  store ptr getelementptr inbounds (%struct._php_ps_globals, ptr @ps_globals, i32 0, i32 24, i32 4), ptr %7, align 8
  %64 = load ptr, ptr %7, align 8
  %65 = getelementptr inbounds %struct._zval_struct, ptr %64, i32 0, i32 1
  %66 = load i8, ptr %65, align 8
  %67 = zext i8 %66 to i32
  %68 = icmp eq i32 %67, 0
  br i1 %68, label %72, label %69

69:                                               ; preds = %63
  call void @zval_ptr_dtor(ptr noundef getelementptr inbounds (%struct._php_ps_globals, ptr @ps_globals, i32 0, i32 24, i32 4))
  br label %70

70:                                               ; preds = %69
  store i32 0, ptr getelementptr inbounds (%struct._php_ps_globals, ptr @ps_globals, i32 0, i32 24, i32 4, i32 1), align 8
  br label %71

71:                                               ; preds = %70
  br label %72

72:                                               ; preds = %71, %63
  store ptr getelementptr inbounds (%struct._php_ps_globals, ptr @ps_globals, i32 0, i32 24, i32 5), ptr %8, align 8
  %73 = load ptr, ptr %8, align 8
  %74 = getelementptr inbounds %struct._zval_struct, ptr %73, i32 0, i32 1
  %75 = load i8, ptr %74, align 8
  %76 = zext i8 %75 to i32
  %77 = icmp eq i32 %76, 0
  br i1 %77, label %81, label %78

78:                                               ; preds = %72
  call void @zval_ptr_dtor(ptr noundef getelementptr inbounds (%struct._php_ps_globals, ptr @ps_globals, i32 0, i32 24, i32 5))
  br label %79

79:                                               ; preds = %78
  store i32 0, ptr getelementptr inbounds (%struct._php_ps_globals, ptr @ps_globals, i32 0, i32 24, i32 5, i32 1), align 8
  br label %80

80:                                               ; preds = %79
  br label %81

81:                                               ; preds = %80, %72
  store ptr getelementptr inbounds (%struct._php_ps_globals, ptr @ps_globals, i32 0, i32 24, i32 6), ptr %9, align 8
  %82 = load ptr, ptr %9, align 8
  %83 = getelementptr inbounds %struct._zval_struct, ptr %82, i32 0, i32 1
  %84 = load i8, ptr %83, align 8
  %85 = zext i8 %84 to i32
  %86 = icmp eq i32 %85, 0
  br i1 %86, label %90, label %87

87:                                               ; preds = %81
  call void @zval_ptr_dtor(ptr noundef getelementptr inbounds (%struct._php_ps_globals, ptr @ps_globals, i32 0, i32 24, i32 6))
  br label %88

88:                                               ; preds = %87
  store i32 0, ptr getelementptr inbounds (%struct._php_ps_globals, ptr @ps_globals, i32 0, i32 24, i32 6, i32 1), align 8
  br label %89

89:                                               ; preds = %88
  br label %90

90:                                               ; preds = %89, %81
  store ptr getelementptr inbounds (%struct._php_ps_globals, ptr @ps_globals, i32 0, i32 24, i32 7), ptr %10, align 8
  %91 = load ptr, ptr %10, align 8
  %92 = getelementptr inbounds %struct._zval_struct, ptr %91, i32 0, i32 1
  %93 = load i8, ptr %92, align 8
  %94 = zext i8 %93 to i32
  %95 = icmp eq i32 %94, 0
  br i1 %95, label %99, label %96

96:                                               ; preds = %90
  call void @zval_ptr_dtor(ptr noundef getelementptr inbounds (%struct._php_ps_globals, ptr @ps_globals, i32 0, i32 24, i32 7))
  br label %97

97:                                               ; preds = %96
  store i32 0, ptr getelementptr inbounds (%struct._php_ps_globals, ptr @ps_globals, i32 0, i32 24, i32 7, i32 1), align 8
  br label %98

98:                                               ; preds = %97
  br label %99

99:                                               ; preds = %98, %90
  store ptr getelementptr inbounds (%struct._php_ps_globals, ptr @ps_globals, i32 0, i32 24, i32 8), ptr %11, align 8
  %100 = load ptr, ptr %11, align 8
  %101 = getelementptr inbounds %struct._zval_struct, ptr %100, i32 0, i32 1
  %102 = load i8, ptr %101, align 8
  %103 = zext i8 %102 to i32
  %104 = icmp eq i32 %103, 0
  br i1 %104, label %108, label %105

105:                                              ; preds = %99
  call void @zval_ptr_dtor(ptr noundef getelementptr inbounds (%struct._php_ps_globals, ptr @ps_globals, i32 0, i32 24, i32 8))
  br label %106

106:                                              ; preds = %105
  store i32 0, ptr getelementptr inbounds (%struct._php_ps_globals, ptr @ps_globals, i32 0, i32 24, i32 8, i32 1), align 8
  br label %107

107:                                              ; preds = %106
  br label %108

108:                                              ; preds = %107, %99
  ret i32 0
}