; Function Attrs: nounwind uwtable
define internal noundef i32 @zm_deactivate_session(i32 %0, i32 %1) #0 {
  %3 = alloca [1 x %struct.__jmp_buf_tag], align 16
  %4 = load i32, ptr getelementptr inbounds (%struct._php_ps_globals, ptr @ps_globals, i64 0, i32 14), align 8
  %5 = icmp eq i32 %4, 2
  br i1 %5, label %6, label %13

6:                                                ; preds = %2
  %7 = load ptr, ptr getelementptr inbounds (%struct._zend_executor_globals, ptr @executor_globals, i64 0, i32 7), align 8
  store ptr %3, ptr getelementptr inbounds (%struct._zend_executor_globals, ptr @executor_globals, i64 0, i32 7), align 8
  %8 = call i32 @__sigsetjmp(ptr noundef nonnull %3, i32 noundef 0) #24
  %9 = icmp eq i32 %8, 0
  br i1 %9, label %10, label %12

10:                                               ; preds = %6
  %11 = call i32 @php_session_flush(i32 noundef 1), !range !4
  br label %12

12:                                               ; preds = %10, %6
  store ptr %7, ptr getelementptr inbounds (%struct._zend_executor_globals, ptr @executor_globals, i64 0, i32 7), align 8
  br label %13

13:                                               ; preds = %12, %2
  call fastcc void @php_rshutdown_session_globals()
  %14 = load i8, ptr getelementptr inbounds (%struct._php_ps_globals, ptr @ps_globals, i64 0, i32 24, i32 0, i32 1), align 8
  %15 = icmp eq i8 %14, 0
  br i1 %15, label %17, label %16

16:                                               ; preds = %13
  call void @zval_ptr_dtor(ptr noundef nonnull getelementptr inbounds (%struct._php_ps_globals, ptr @ps_globals, i64 0, i32 24)) #23
  store i32 0, ptr getelementptr inbounds (%struct._php_ps_globals, ptr @ps_globals, i64 0, i32 24, i32 0, i32 1), align 8
  br label %17

17:                                               ; preds = %16, %13
  %18 = load i8, ptr getelementptr inbounds (%struct._php_ps_globals, ptr @ps_globals, i64 0, i32 24, i32 1, i32 1), align 8
  %19 = icmp eq i8 %18, 0
  br i1 %19, label %21, label %20

20:                                               ; preds = %17
  call void @zval_ptr_dtor(ptr noundef nonnull getelementptr inbounds (%struct._php_ps_globals, ptr @ps_globals, i64 0, i32 24, i32 1)) #23
  store i32 0, ptr getelementptr inbounds (%struct._php_ps_globals, ptr @ps_globals, i64 0, i32 24, i32 1, i32 1), align 8
  br label %21

21:                                               ; preds = %20, %17
  %22 = load i8, ptr getelementptr inbounds (%struct._php_ps_globals, ptr @ps_globals, i64 0, i32 24, i32 2, i32 1), align 8
  %23 = icmp eq i8 %22, 0
  br i1 %23, label %25, label %24

24:                                               ; preds = %21
  call void @zval_ptr_dtor(ptr noundef nonnull getelementptr inbounds (%struct._php_ps_globals, ptr @ps_globals, i64 0, i32 24, i32 2)) #23
  store i32 0, ptr getelementptr inbounds (%struct._php_ps_globals, ptr @ps_globals, i64 0, i32 24, i32 2, i32 1), align 8
  br label %25

25:                                               ; preds = %24, %21
  %26 = load i8, ptr getelementptr inbounds (%struct._php_ps_globals, ptr @ps_globals, i64 0, i32 24, i32 3, i32 1), align 8
  %27 = icmp eq i8 %26, 0
  br i1 %27, label %29, label %28

28:                                               ; preds = %25
  call void @zval_ptr_dtor(ptr noundef nonnull getelementptr inbounds (%struct._php_ps_globals, ptr @ps_globals, i64 0, i32 24, i32 3)) #23
  store i32 0, ptr getelementptr inbounds (%struct._php_ps_globals, ptr @ps_globals, i64 0, i32 24, i32 3, i32 1), align 8
  br label %29

29:                                               ; preds = %28, %25
  %30 = load i8, ptr getelementptr inbounds (%struct._php_ps_globals, ptr @ps_globals, i64 0, i32 24, i32 4, i32 1), align 8
  %31 = icmp eq i8 %30, 0
  br i1 %31, label %33, label %32

32:                                               ; preds = %29
  call void @zval_ptr_dtor(ptr noundef nonnull getelementptr inbounds (%struct._php_ps_globals, ptr @ps_globals, i64 0, i32 24, i32 4)) #23
  store i32 0, ptr getelementptr inbounds (%struct._php_ps_globals, ptr @ps_globals, i64 0, i32 24, i32 4, i32 1), align 8
  br label %33

33:                                               ; preds = %32, %29
  %34 = load i8, ptr getelementptr inbounds (%struct._php_ps_globals, ptr @ps_globals, i64 0, i32 24, i32 5, i32 1), align 8
  %35 = icmp eq i8 %34, 0
  br i1 %35, label %37, label %36

36:                                               ; preds = %33
  call void @zval_ptr_dtor(ptr noundef nonnull getelementptr inbounds (%struct._php_ps_globals, ptr @ps_globals, i64 0, i32 24, i32 5)) #23
  store i32 0, ptr getelementptr inbounds (%struct._php_ps_globals, ptr @ps_globals, i64 0, i32 24, i32 5, i32 1), align 8
  br label %37

37:                                               ; preds = %36, %33
  %38 = load i8, ptr getelementptr inbounds (%struct._php_ps_globals, ptr @ps_globals, i64 0, i32 24, i32 6, i32 1), align 8
  %39 = icmp eq i8 %38, 0
  br i1 %39, label %41, label %40

40:                                               ; preds = %37
  call void @zval_ptr_dtor(ptr noundef nonnull getelementptr inbounds (%struct._php_ps_globals, ptr @ps_globals, i64 0, i32 24, i32 6)) #23
  store i32 0, ptr getelementptr inbounds (%struct._php_ps_globals, ptr @ps_globals, i64 0, i32 24, i32 6, i32 1), align 8
  br label %41

41:                                               ; preds = %40, %37
  %42 = load i8, ptr getelementptr inbounds (%struct._php_ps_globals, ptr @ps_globals, i64 0, i32 24, i32 7, i32 1), align 8
  %43 = icmp eq i8 %42, 0
  br i1 %43, label %45, label %44

44:                                               ; preds = %41
  call void @zval_ptr_dtor(ptr noundef nonnull getelementptr inbounds (%struct._php_ps_globals, ptr @ps_globals, i64 0, i32 24, i32 7)) #23
  store i32 0, ptr getelementptr inbounds (%struct._php_ps_globals, ptr @ps_globals, i64 0, i32 24, i32 7, i32 1), align 8
  br label %45

45:                                               ; preds = %44, %41
  %46 = load i8, ptr getelementptr inbounds (%struct._php_ps_globals, ptr @ps_globals, i64 0, i32 24, i32 8, i32 1), align 8
  %47 = icmp eq i8 %46, 0
  br i1 %47, label %49, label %48

48:                                               ; preds = %45
  call void @zval_ptr_dtor(ptr noundef nonnull getelementptr inbounds (%struct._php_ps_globals, ptr @ps_globals, i64 0, i32 24, i32 8)) #23
  store i32 0, ptr getelementptr inbounds (%struct._php_ps_globals, ptr @ps_globals, i64 0, i32 24, i32 8, i32 1), align 8
  br label %49

49:                                               ; preds = %48, %45
  ret i32 0
}